target datalayout = "e-m:e-p270:32:32-p271:32:32-p272:64:64-i64:64-i128:128-f80:128-n8:16:32:64-S128"
target triple = "x86_64-unknown-linux-gnu"

%struct.IDEDMA = type { ptr, %struct.QEMUIOVector, ptr }
%struct.QEMUIOVector = type { ptr, i32, %union.anon }
%union.anon = type { %struct.anon }
%struct.anon = type { i32, %struct.iovec }
%struct.iovec = type { ptr, i64 }
%struct.IDEDMAOps = type { ptr, ptr, ptr, ptr, ptr, ptr, ptr, ptr, ptr, ptr }
%struct.IDEBus = type { %struct.BusState, ptr, ptr, [2 x %struct.IDEState], ptr, i32, i32, ptr, i8, i8, ptr, i32, i8, i64, i32, %struct.PortioList, %struct.PortioList, ptr }
%struct.BusState = type { %struct.Object, ptr, ptr, ptr, i32, i8, i8, i32, %union.BusChildHead, %struct.BusStateEntry, %struct.ResettableState }
%struct.Object = type { ptr, ptr, ptr, i32, ptr }
%union.BusChildHead = type { %struct.QTailQLink }
%struct.QTailQLink = type { ptr, ptr }
%struct.BusStateEntry = type { ptr, ptr }
%struct.ResettableState = type { i32, i8, i8 }
%struct.IDEState = type { ptr, i8, i32, i32, i32, i32, i32, i32, i32, i64, i32, i32, [512 x i8], i32, [21 x i8], [41 x i8], i64, i8, i8, i32, i8, i8, i8, i8, i8, i8, i8, i8, i8, i8, i8, i8, i8, ptr, [9 x i8], %struct.unreported_events, i8, i8, i8, i8, i8, i32, i32, i32, i32, i32, i32, %struct.BlockAcctCookie, ptr, %struct.QEMUIOVector, %struct.anon.1, i64, i32, %struct.QEMUSGList, i32, ptr, ptr, ptr, ptr, i32, i32, i32, i8, ptr, i32, i8, i32, ptr, i32, i32, i8, i8, i32, i8, ptr, i32 }
%struct.unreported_events = type { i8, i8 }
%struct.BlockAcctCookie = type { i64, i64, i32 }
%struct.anon.1 = type { ptr }
%struct.QEMUSGList = type { ptr, i32, i32, i64, ptr, ptr }
%struct.PortioList = type { ptr, ptr, ptr, i32, ptr, ptr, ptr, i8 }

; Function Attrs: nounwind sspstrong uwtable
define internal void @ide_cmd_done(ptr noundef %s) #0 {
entry:
  %s.addr = alloca ptr, align 8
  store ptr %s, ptr %s.addr, align 8
  %0 = load ptr, ptr %s.addr, align 8
  %bus = getelementptr inbounds %struct.IDEState, ptr %0, i32 0, i32 0
  %1 = load ptr, ptr %bus, align 8
  %dma = getelementptr inbounds %struct.IDEBus, ptr %1, i32 0, i32 7
  %2 = load ptr, ptr %dma, align 8
  %ops = getelementptr inbounds %struct.IDEDMA, ptr %2, i32 0, i32 0
  %3 = load ptr, ptr %ops, align 8
  %cmd_done = getelementptr inbounds %struct.IDEDMAOps, ptr %3, i32 0, i32 8
  %4 = load ptr, ptr %cmd_done, align 8
  %tobool = icmp ne ptr %4, null
  br i1 %tobool, label %if.then, label %if.end

if.then:                                          ; preds = %entry
  %5 = load ptr, ptr %s.addr, align 8
  %bus1 = getelementptr inbounds %struct.IDEState, ptr %5, i32 0, i32 0
  %6 = load ptr, ptr %bus1, align 8
  %dma2 = getelementptr inbounds %struct.IDEBus, ptr %6, i32 0, i32 7
  %7 = load ptr, ptr %dma2, align 8
  %ops3 = getelementptr inbounds %struct.IDEDMA, ptr %7, i32 0, i32 0
  %8 = load ptr, ptr %ops3, align 8
  %cmd_done4 = getelementptr inbounds %struct.IDEDMAOps, ptr %8, i32 0, i32 8
  %9 = load ptr, ptr %cmd_done4, align 8
  %10 = load ptr, ptr %s.addr, align 8
  %bus5 = getelementptr inbounds %struct.IDEState, ptr %10, i32 0, i32 0
  %11 = load ptr, ptr %bus5, align 8
  %dma6 = getelementptr inbounds %struct.IDEBus, ptr %11, i32 0, i32 7
  %12 = load ptr, ptr %dma6, align 8
  call void %9(ptr noundef %12)
  br label %if.end

if.end:                                           ; preds = %if.then, %entry
  ret void
}

; Function Attrs: nounwind sspstrong uwtable
define internal void @ide_transfer_halt(ptr noundef %s) #0 {
entry:
  %s.addr = alloca ptr, align 8
  store ptr %s, ptr %s.addr, align 8
  %0 = load ptr, ptr %s.addr, align 8
  %end_transfer_func = getelementptr inbounds %struct.IDEState, ptr %0, i32 0, i32 55
  store ptr @ide_transfer_stop, ptr %end_transfer_func, align 8
  %1 = load ptr, ptr %s.addr, align 8
  %io_buffer = getelementptr inbounds %struct.IDEState, ptr %1, i32 0, i32 58
  %2 = load ptr, ptr %io_buffer, align 8
  %3 = load ptr, ptr %s.addr, align 8
  %data_ptr = getelementptr inbounds %struct.IDEState, ptr %3, i32 0, i32 56
  store ptr %2, ptr %data_ptr, align 8
  %4 = load ptr, ptr %s.addr, align 8
  %io_buffer1 = getelementptr inbounds %struct.IDEState, ptr %4, i32 0, i32 58
  %5 = load ptr, ptr %io_buffer1, align 8
  %6 = load ptr, ptr %s.addr, align 8
  %data_end = getelementptr inbounds %struct.IDEState, ptr %6, i32 0, i32 57
  store ptr %5, ptr %data_end, align 8
  %7 = load ptr, ptr %s.addr, align 8
  %status = getelementptr inbounds %struct.IDEState, ptr %7, i32 0, i32 29
  %8 = load i8, ptr %status, align 1
  %conv = zext i8 %8 to i32
  %and = and i32 %conv, -9
  %conv2 = trunc i32 %and to i8
  store i8 %conv2, ptr %status, align 1
  ret void
}

; Function Attrs: nounwind sspstrong uwtable
define dso_local void @ide_transfer_stop(ptr noundef %s) #0 {
entry:
  %s.addr = alloca ptr, align 8
  store ptr %s, ptr %s.addr, align 8
  %0 = load ptr, ptr %s.addr, align 8
  call void @ide_transfer_halt(ptr noundef %0)
  %1 = load ptr, ptr %s.addr, align 8
  call void @ide_cmd_done(ptr noundef %1)
  ret void
}

; Function Attrs: nounwind sspstrong uwtable
define dso_local void @ide_abort_command(ptr noundef %s) #0 {
entry:
  %s.addr = alloca ptr, align 8
  store ptr %s, ptr %s.addr, align 8
  %0 = load ptr, ptr %s.addr, align 8
  %status = getelementptr inbounds %struct.IDEState, ptr %0, i32 0, i32 29
  store i8 65, ptr %status, align 1
  %1 = load ptr, ptr %s.addr, align 8
  %error = getelementptr inbounds %struct.IDEState, ptr %1, i32 0, i32 18
  store i8 4, ptr %error, align 1
  %2 = load ptr, ptr %s.addr, align 8
  call void @ide_transfer_stop(ptr noundef %2)
  ret void
}

; Function Attrs: nounwind sspstrong uwtable
define internal void @ide_sector_start_dma(ptr noundef %s, i32 noundef %dma_cmd) #0 {
entry:
  %s.addr = alloca ptr, align 8
  %dma_cmd.addr = alloca i32, align 4
  store ptr %s, ptr %s.addr, align 8
  store i32 %dma_cmd, ptr %dma_cmd.addr, align 4
  %0 = load ptr, ptr %s.addr, align 8
  %status = getelementptr inbounds %struct.IDEState, ptr %0, i32 0, i32 29
  store i8 88, ptr %status, align 1
  %1 = load ptr, ptr %s.addr, align 8
  %io_buffer_size = getelementptr inbounds %struct.IDEState, ptr %1, i32 0, i32 52
  store i32 0, ptr %io_buffer_size, align 8
  %2 = load i32, ptr %dma_cmd.addr, align 4
  %3 = load ptr, ptr %s.addr, align 8
  %dma_cmd1 = getelementptr inbounds %struct.IDEState, ptr %3, i32 0, i32 69
  store i32 %2, ptr %dma_cmd1, align 4
  %4 = load i32, ptr %dma_cmd.addr, align 4
  switch i32 %4, label %sw.default [
    i32 0, label %sw.bb
    i32 1, label %sw.bb2
  ]

sw.bb:                                            ; preds = %entry
  %5 = load ptr, ptr %s.addr, align 8
  %blk = getelementptr inbounds %struct.IDEState, ptr %5, i32 0, i32 33
  %6 = load ptr, ptr %blk, align 8
  %call = call ptr @blk_get_stats(ptr noundef %6)
  %7 = load ptr, ptr %s.addr, align 8
  %acct = getelementptr inbounds %struct.IDEState, ptr %7, i32 0, i32 47
  %8 = load ptr, ptr %s.addr, align 8
  %nsector = getelementptr inbounds %struct.IDEState, ptr %8, i32 0, i32 19
  %9 = load i32, ptr %nsector, align 4
  %conv = zext i32 %9 to i64
  %mul = mul i64 %conv, 512
  call void @block_acct_start(ptr noundef %call, ptr noundef %acct, i64 noundef %mul, i32 noundef 1)
  br label %sw.epilog

sw.bb2:                                           ; preds = %entry
  %10 = load ptr, ptr %s.addr, align 8
  %blk3 = getelementptr inbounds %struct.IDEState, ptr %10, i32 0, i32 33
  %11 = load ptr, ptr %blk3, align 8
  %call4 = call ptr @blk_get_stats(ptr noundef %11)
  %12 = load ptr, ptr %s.addr, align 8
  %acct5 = getelementptr inbounds %struct.IDEState, ptr %12, i32 0, i32 47
  %13 = load ptr, ptr %s.addr, align 8
  %nsector6 = getelementptr inbounds %struct.IDEState, ptr %13, i32 0, i32 19
  %14 = load i32, ptr %nsector6, align 4
  %conv7 = zext i32 %14 to i64
  %mul8 = mul i64 %conv7, 512
  call void @block_acct_start(ptr noundef %call4, ptr noundef %acct5, i64 noundef %mul8, i32 noundef 2)
  br label %sw.epilog

sw.default:                                       ; preds = %entry
  br label %sw.epilog

sw.epilog:                                        ; preds = %sw.default, %sw.bb2, %sw.bb
  %15 = load ptr, ptr %s.addr, align 8
  call void @ide_start_dma(ptr noundef %15, ptr noundef @ide_dma_cb)
  ret void
}

; Function Attrs: nounwind sspstrong uwtable
define internal zeroext i1 @cmd_data_set_management(ptr noundef %s, i8 noundef zeroext %cmd) #0 {
entry:
  %retval = alloca i1, align 1
  %s.addr = alloca ptr, align 8
  %cmd.addr = alloca i8, align 1
  store ptr %s, ptr %s.addr, align 8
  store i8 %cmd, ptr %cmd.addr, align 1
  %0 = load ptr, ptr %s.addr, align 8
  %feature = getelementptr inbounds %struct.IDEState, ptr %0, i32 0, i32 17
  %1 = load i8, ptr %feature, align 8
  %conv = zext i8 %1 to i32
  switch i32 %conv, label %sw.epilog [
    i32 1, label %sw.bb
  ]

sw.bb:                                            ; preds = %entry
  %2 = load ptr, ptr %s.addr, align 8
  %blk = getelementptr inbounds %struct.IDEState, ptr %2, i32 0, i32 33
  %3 = load ptr, ptr %blk, align 8
  %tobool = icmp ne ptr %3, null
  br i1 %tobool, label %if.then, label %if.end

if.then:                                          ; preds = %sw.bb
  %4 = load ptr, ptr %s.addr, align 8
  call void @ide_sector_start_dma(ptr noundef %4, i32 noundef 2)
  store i1 false, ptr %retval, align 1
  br label %return

if.end:                                           ; preds = %sw.bb
  br label %sw.epilog

sw.epilog:                                        ; preds = %if.end, %entry
  %5 = load ptr, ptr %s.addr, align 8
  call void @ide_abort_command(ptr noundef %5)
  store i1 true, ptr %retval, align 1
  br label %return

return:                                           ; preds = %sw.epilog, %if.then
  %6 = load i1, ptr %retval, align 1
  ret i1 %6
}