; Function Attrs: nounwind sspstrong uwtable
define internal noundef zeroext i1 @cmd_data_set_management(ptr noundef initializes((665, 666)) %s, i8 zeroext %cmd) #0 {
entry:
  %feature = getelementptr inbounds nuw i8, ptr %s, i64 648
  %0 = load i8, ptr %feature, align 8
  %cond = icmp eq i8 %0, 1
  br i1 %cond, label %sw.bb, label %sw.epilog

sw.bb:                                            ; preds = %entry
  %blk = getelementptr inbounds nuw i8, ptr %s, i64 672
  %1 = load ptr, ptr %blk, align 8
  %tobool.not = icmp eq ptr %1, null
  br i1 %tobool.not, label %sw.epilog, label %if.then

if.then:                                          ; preds = %sw.bb
  %status.i = getelementptr inbounds nuw i8, ptr %s, i64 665
  store i8 88, ptr %status.i, align 1
  %io_buffer_size.i = getelementptr inbounds nuw i8, ptr %s, i64 808
  store i32 0, ptr %io_buffer_size.i, align 8
  %dma_cmd1.i = getelementptr inbounds nuw i8, ptr %s, i64 948
  store i32 2, ptr %dma_cmd1.i, align 4
  tail call void @ide_start_dma(ptr noundef nonnull %s, ptr noundef nonnull @ide_dma_cb)
  br label %return

sw.epilog:                                        ; preds = %sw.bb, %entry
  %status.i4 = getelementptr inbounds nuw i8, ptr %s, i64 665
  %error.i = getelementptr inbounds nuw i8, ptr %s, i64 649
  store i8 4, ptr %error.i, align 1
  %end_transfer_func.i.i.i = getelementptr inbounds nuw i8, ptr %s, i64 864
  store ptr @ide_transfer_stop, ptr %end_transfer_func.i.i.i, align 8
  %io_buffer.i.i.i = getelementptr inbounds nuw i8, ptr %s, i64 888
  %2 = load ptr, ptr %io_buffer.i.i.i, align 8
  %data_ptr.i.i.i = getelementptr inbounds nuw i8, ptr %s, i64 872
  store ptr %2, ptr %data_ptr.i.i.i, align 8
  %data_end.i.i.i = getelementptr inbounds nuw i8, ptr %s, i64 880
  store ptr %2, ptr %data_end.i.i.i, align 8
  store i8 65, ptr %status.i4, align 1
  %s.val.i.i = load ptr, ptr %s, align 8
  %3 = getelementptr i8, ptr %s.val.i.i, i64 2120
  %s.val.val.i.i = load ptr, ptr %3, align 8
  %4 = load ptr, ptr %s.val.val.i.i, align 8
  %cmd_done.i.i.i = getelementptr inbounds nuw i8, ptr %4, i64 64
  %5 = load ptr, ptr %cmd_done.i.i.i, align 8
  %tobool.not.i.i.i = icmp eq ptr %5, null
  br i1 %tobool.not.i.i.i, label %return, label %if.then.i.i.i

if.then.i.i.i:                                    ; preds = %sw.epilog
  tail call void %5(ptr noundef nonnull %s.val.val.i.i) #17
  br label %return

return:                                           ; preds = %if.then.i.i.i, %sw.epilog, %if.then
  %retval.0 = phi i1 [ false, %if.then ], [ true, %sw.epilog ], [ true, %if.then.i.i.i ]
  ret i1 %retval.0
}